; Function Attrs: mustprogress nounwind uwtable
define hidden void @_ZNK10DumpRegion5printEm(ptr nocapture noundef nonnull readonly align 8 dereferenceable(64) %0, i64 noundef %1) local_unnamed_addr #0 align 2 {
  %3 = load volatile ptr, ptr getelementptr inbounds (i8, ptr @_ZN16LogTagSetMappingILN6LogTag4typeE14ELS1_0ELS1_0ELS1_0ELS1_0ELS1_0EE7_tagsetE, i64 56), align 8
  %.not = icmp eq ptr %3, null
  br i1 %.not, label %31, label %4

4:                                                ; preds = %2
  %5 = load ptr, ptr %0, align 8
  %6 = getelementptr inbounds i8, ptr %0, i64 16
  %7 = load ptr, ptr %6, align 8
  %8 = getelementptr inbounds i8, ptr %0, i64 8
  %9 = load ptr, ptr %8, align 8
  %10 = ptrtoint ptr %7 to i64
  %11 = ptrtoint ptr %9 to i64
  %12 = sub i64 %10, %11
  %.not.i = icmp eq i64 %1, 0
  %13 = uitofp i64 %12 to double
  %14 = uitofp i64 %1 to double
  %15 = fdiv double %13, %14
  %16 = fmul double %15, 1.000000e+02
  %17 = select i1 %.not.i, double 0.000000e+00, double %16
  %18 = getelementptr inbounds i8, ptr %0, i64 24
  %19 = load ptr, ptr %18, align 8
  %20 = ptrtoint ptr %19 to i64
  %21 = sub i64 %20, %11
  %.not.i1 = icmp eq ptr %19, %9
  %22 = uitofp i64 %21 to double
  %23 = fdiv double %13, %22
  %24 = fmul double %23, 1.000000e+02
  %25 = select i1 %.not.i1, double 0.000000e+00, double %24
  %26 = load ptr, ptr @_ZN14ArchiveBuilder8_currentE, align 8
  %27 = getelementptr inbounds i8, ptr %26, i64 96
  %28 = load i64, ptr %27, align 8
  %29 = getelementptr inbounds i8, ptr %9, i64 %28
  %30 = ptrtoint ptr %29 to i64
  tail call void (ptr, ...) @_ZN7LogImplILN6LogTag4typeE14ELS1_0ELS1_0ELS1_0ELS1_0ELS1_0EE5writeILN8LogLevel4typeE2EEEvPKcz(ptr noundef nonnull @.str.9, ptr noundef %5, i64 noundef %12, double noundef %17, i64 noundef %21, double noundef %25, i64 noundef %30)
  br label %31

31:                                               ; preds = %2, %4
  ret void
}